; ModuleID = 'source-C-CXX/11/1410.cpp'
source_filename = "source-C-CXX/11/1410.cpp"
target datalayout = "e-m:e-p270:32:32-p271:32:32-p272:64:64-i64:64-f80:128-n8:16:32:64-S128"
target triple = "x86_64-pc-linux-gnu"

%"class.std::ios_base::Init" = type { i8 }
%"class.std::basic_istream" = type { i32 (...)**, i64, %"class.std::basic_ios" }
%"class.std::basic_ios" = type { %"class.std::ios_base", %"class.std::basic_ostream"*, i8, i8, %"class.std::basic_streambuf"*, %"class.std::ctype"*, %"class.std::num_put"*, %"class.std::num_get"* }
%"class.std::ios_base" = type { i32 (...)**, i64, i64, i32, i32, i32, %"struct.std::ios_base::_Callback_list"*, %"struct.std::ios_base::_Words", [8 x %"struct.std::ios_base::_Words"], i32, %"struct.std::ios_base::_Words"*, %"class.std::locale" }
%"struct.std::ios_base::_Callback_list" = type { %"struct.std::ios_base::_Callback_list"*, void (i32, %"class.std::ios_base"*, i32)*, i32, i32 }
%"struct.std::ios_base::_Words" = type { i8*, i64 }
%"class.std::locale" = type { %"class.std::locale::_Impl"* }
%"class.std::locale::_Impl" = type { i32, %"class.std::locale::facet"**, i64, %"class.std::locale::facet"**, i8** }
%"class.std::locale::facet" = type <{ i32 (...)**, i32, [4 x i8] }>
%"class.std::basic_ostream" = type { i32 (...)**, %"class.std::basic_ios" }
%"class.std::basic_streambuf" = type { i32 (...)**, i8*, i8*, i8*, i8*, i8*, i8*, %"class.std::locale" }
%"class.std::ctype" = type <{ %"class.std::locale::facet.base", [4 x i8], %struct.__locale_struct*, i8, [7 x i8], i32*, i32*, i16*, i8, [256 x i8], [256 x i8], i8, [6 x i8] }>
%"class.std::locale::facet.base" = type <{ i32 (...)**, i32 }>
%struct.__locale_struct = type { [13 x %struct.__locale_data*], i16*, i32*, i32*, [13 x i8*] }
%struct.__locale_data = type opaque
%"class.std::num_put" = type { %"class.std::locale::facet.base", [4 x i8] }
%"class.std::num_get" = type { %"class.std::locale::facet.base", [4 x i8] }

@_ZStL8__ioinit = internal global %"class.std::ios_base::Init" zeroinitializer, align 1
@__dso_handle = external hidden global i8
@_ZSt3cin = external global %"class.std::basic_istream", align 8
@_ZSt4cout = external global %"class.std::basic_ostream", align 8
@llvm.global_ctors = appending global [1 x { i32, void ()*, i8* }] [{ i32, void ()*, i8* } { i32 65535, void ()* @_GLOBAL__sub_I_1410.cpp, i8* null }]

declare void @_ZNSt8ios_base4InitC1Ev(%"class.std::ios_base::Init"* nonnull align 1 dereferenceable(1)) unnamed_addr #0

; Function Attrs: nounwind
declare void @_ZNSt8ios_base4InitD1Ev(%"class.std::ios_base::Init"* nonnull align 1 dereferenceable(1)) unnamed_addr #1

; Function Attrs: nofree nounwind
declare i32 @__cxa_atexit(void (i8*)*, i8*, i8*) local_unnamed_addr #2

; Function Attrs: mustprogress norecurse sspstrong uwtable
define dso_local i32 @main() local_unnamed_addr #3 {
  %1 = alloca [16 x i32], align 16
  %2 = bitcast [16 x i32]* %1 to i8*
  %3 = getelementptr inbounds [16 x i32], [16 x i32]* %1, i64 0, i64 1
  br label %4

4:                                                ; preds = %150, %0
  call void @llvm.lifetime.start.p0i8(i64 64, i8* nonnull %2) #8
  br label %5

5:                                                ; preds = %5, %4
  %6 = phi i64 [ %11, %5 ], [ 1, %4 ]
  %7 = getelementptr inbounds [16 x i32], [16 x i32]* %1, i64 0, i64 %6
  %8 = call nonnull align 8 dereferenceable(16) %"class.std::basic_istream"* @_ZNSirsERi(%"class.std::basic_istream"* nonnull align 8 dereferenceable(16) @_ZSt3cin, i32* nonnull align 4 dereferenceable(4) %7)
  %9 = load i32, i32* %7, align 4, !tbaa !5
  %10 = icmp eq i32 %9, 0
  %11 = add nuw i64 %6, 1
  br i1 %10, label %12, label %5, !llvm.loop !9

12:                                               ; preds = %5
  %13 = load i32, i32* %3, align 4, !tbaa !5
  %14 = icmp eq i32 %13, -1
  br i1 %14, label %154, label %15

15:                                               ; preds = %12
  %16 = trunc i64 %6 to i32
  %17 = icmp ugt i32 %16, 1
  br i1 %17, label %18, label %122

18:                                               ; preds = %15
  %19 = and i64 %6, 4294967295
  %20 = add nsw i64 %19, -1
  %21 = add nsw i64 %19, -9
  %22 = lshr i64 %21, 3
  %23 = add nuw nsw i64 %22, 1
  %24 = icmp ult i64 %20, 8
  %25 = and i64 %20, -8
  %26 = or i64 %25, 1
  %27 = and i64 %23, 1
  %28 = icmp ult i64 %21, 8
  %29 = and i64 %23, 4611686018427387902
  %30 = icmp eq i64 %27, 0
  %31 = icmp eq i64 %20, %25
  br label %32

32:                                               ; preds = %119, %18
  %33 = phi i32 [ %13, %18 ], [ %121, %119 ]
  %34 = phi i64 [ 1, %18 ], [ %117, %119 ]
  %35 = phi i32 [ 0, %18 ], [ %116, %119 ]
  %36 = shl nsw i32 %33, 1
  br i1 %24, label %102, label %37

37:                                               ; preds = %32
  %38 = insertelement <4 x i32> <i32 poison, i32 0, i32 0, i32 0>, i32 %35, i32 0
  %39 = insertelement <4 x i32> poison, i32 %36, i32 0
  %40 = shufflevector <4 x i32> %39, <4 x i32> poison, <4 x i32> zeroinitializer
  %41 = insertelement <4 x i32> poison, i32 %36, i32 0
  %42 = shufflevector <4 x i32> %41, <4 x i32> poison, <4 x i32> zeroinitializer
  br i1 %28, label %77, label %43

43:                                               ; preds = %37, %43
  %44 = phi i64 [ %74, %43 ], [ 0, %37 ]
  %45 = phi <4 x i32> [ %72, %43 ], [ %38, %37 ]
  %46 = phi <4 x i32> [ %73, %43 ], [ zeroinitializer, %37 ]
  %47 = phi i64 [ %75, %43 ], [ %29, %37 ]
  %48 = or i64 %44, 1
  %49 = getelementptr inbounds [16 x i32], [16 x i32]* %1, i64 0, i64 %48
  %50 = bitcast i32* %49 to <4 x i32>*
  %51 = load <4 x i32>, <4 x i32>* %50, align 4, !tbaa !5
  %52 = getelementptr inbounds i32, i32* %49, i64 4
  %53 = bitcast i32* %52 to <4 x i32>*
  %54 = load <4 x i32>, <4 x i32>* %53, align 4, !tbaa !5
  %55 = icmp eq <4 x i32> %40, %51
  %56 = icmp eq <4 x i32> %42, %54
  %57 = zext <4 x i1> %55 to <4 x i32>
  %58 = zext <4 x i1> %56 to <4 x i32>
  %59 = add <4 x i32> %45, %57
  %60 = add <4 x i32> %46, %58
  %61 = or i64 %44, 9
  %62 = getelementptr inbounds [16 x i32], [16 x i32]* %1, i64 0, i64 %61
  %63 = bitcast i32* %62 to <4 x i32>*
  %64 = load <4 x i32>, <4 x i32>* %63, align 4, !tbaa !5
  %65 = getelementptr inbounds i32, i32* %62, i64 4
  %66 = bitcast i32* %65 to <4 x i32>*
  %67 = load <4 x i32>, <4 x i32>* %66, align 4, !tbaa !5
  %68 = icmp eq <4 x i32> %40, %64
  %69 = icmp eq <4 x i32> %42, %67
  %70 = zext <4 x i1> %68 to <4 x i32>
  %71 = zext <4 x i1> %69 to <4 x i32>
  %72 = add <4 x i32> %59, %70
  %73 = add <4 x i32> %60, %71
  %74 = add nuw i64 %44, 16
  %75 = add i64 %47, -2
  %76 = icmp eq i64 %75, 0
  br i1 %76, label %77, label %43, !llvm.loop !11

77:                                               ; preds = %43, %37
  %78 = phi <4 x i32> [ undef, %37 ], [ %72, %43 ]
  %79 = phi <4 x i32> [ undef, %37 ], [ %73, %43 ]
  %80 = phi i64 [ 0, %37 ], [ %74, %43 ]
  %81 = phi <4 x i32> [ %38, %37 ], [ %72, %43 ]
  %82 = phi <4 x i32> [ zeroinitializer, %37 ], [ %73, %43 ]
  br i1 %30, label %97, label %83

83:                                               ; preds = %77
  %84 = or i64 %80, 1
  %85 = getelementptr inbounds [16 x i32], [16 x i32]* %1, i64 0, i64 %84
  %86 = getelementptr inbounds i32, i32* %85, i64 4
  %87 = bitcast i32* %86 to <4 x i32>*
  %88 = load <4 x i32>, <4 x i32>* %87, align 4, !tbaa !5
  %89 = icmp eq <4 x i32> %42, %88
  %90 = zext <4 x i1> %89 to <4 x i32>
  %91 = add <4 x i32> %82, %90
  %92 = bitcast i32* %85 to <4 x i32>*
  %93 = load <4 x i32>, <4 x i32>* %92, align 4, !tbaa !5
  %94 = icmp eq <4 x i32> %40, %93
  %95 = zext <4 x i1> %94 to <4 x i32>
  %96 = add <4 x i32> %81, %95
  br label %97

97:                                               ; preds = %77, %83
  %98 = phi <4 x i32> [ %78, %77 ], [ %96, %83 ]
  %99 = phi <4 x i32> [ %79, %77 ], [ %91, %83 ]
  %100 = add <4 x i32> %99, %98
  %101 = call i32 @llvm.vector.reduce.add.v4i32(<4 x i32> %100)
  br i1 %31, label %115, label %102

102:                                              ; preds = %32, %97
  %103 = phi i64 [ 1, %32 ], [ %26, %97 ]
  %104 = phi i32 [ %35, %32 ], [ %101, %97 ]
  br label %105

105:                                              ; preds = %102, %105
  %106 = phi i64 [ %113, %105 ], [ %103, %102 ]
  %107 = phi i32 [ %112, %105 ], [ %104, %102 ]
  %108 = getelementptr inbounds [16 x i32], [16 x i32]* %1, i64 0, i64 %106
  %109 = load i32, i32* %108, align 4, !tbaa !5
  %110 = icmp eq i32 %36, %109
  %111 = zext i1 %110 to i32
  %112 = add nsw i32 %107, %111
  %113 = add nuw nsw i64 %106, 1
  %114 = icmp eq i64 %113, %19
  br i1 %114, label %115, label %105, !llvm.loop !13

115:                                              ; preds = %105, %97
  %116 = phi i32 [ %101, %97 ], [ %112, %105 ]
  %117 = add nuw nsw i64 %34, 1
  %118 = icmp eq i64 %117, %19
  br i1 %118, label %122, label %119, !llvm.loop !15

119:                                              ; preds = %115
  %120 = getelementptr inbounds [16 x i32], [16 x i32]* %1, i64 0, i64 %117
  %121 = load i32, i32* %120, align 4, !tbaa !5
  br label %32

122:                                              ; preds = %115, %15
  %123 = phi i32 [ 0, %15 ], [ %116, %115 ]
  %124 = call nonnull align 8 dereferenceable(8) %"class.std::basic_ostream"* @_ZNSolsEi(%"class.std::basic_ostream"* nonnull align 8 dereferenceable(8) @_ZSt4cout, i32 %123)
  %125 = bitcast %"class.std::basic_ostream"* %124 to i8**
  %126 = load i8*, i8** %125, align 8, !tbaa !16
  %127 = getelementptr i8, i8* %126, i64 -24
  %128 = bitcast i8* %127 to i64*
  %129 = load i64, i64* %128, align 8
  %130 = bitcast %"class.std::basic_ostream"* %124 to i8*
  %131 = add nsw i64 %129, 240
  %132 = getelementptr inbounds i8, i8* %130, i64 %131
  %133 = bitcast i8* %132 to %"class.std::ctype"**
  %134 = load %"class.std::ctype"*, %"class.std::ctype"** %133, align 8, !tbaa !18
  %135 = icmp eq %"class.std::ctype"* %134, null
  br i1 %135, label %136, label %137

136:                                              ; preds = %122
  call void @_ZSt16__throw_bad_castv() #9
  unreachable

137:                                              ; preds = %122
  %138 = getelementptr inbounds %"class.std::ctype", %"class.std::ctype"* %134, i64 0, i32 8
  %139 = load i8, i8* %138, align 8, !tbaa !22
  %140 = icmp eq i8 %139, 0
  br i1 %140, label %144, label %141

141:                                              ; preds = %137
  %142 = getelementptr inbounds %"class.std::ctype", %"class.std::ctype"* %134, i64 0, i32 9, i64 10
  %143 = load i8, i8* %142, align 1, !tbaa !24
  br label %150

144:                                              ; preds = %137
  call void @_ZNKSt5ctypeIcE13_M_widen_initEv(%"class.std::ctype"* nonnull align 8 dereferenceable(570) %134)
  %145 = bitcast %"class.std::ctype"* %134 to i8 (%"class.std::ctype"*, i8)***
  %146 = load i8 (%"class.std::ctype"*, i8)**, i8 (%"class.std::ctype"*, i8)*** %145, align 8, !tbaa !16
  %147 = getelementptr inbounds i8 (%"class.std::ctype"*, i8)*, i8 (%"class.std::ctype"*, i8)** %146, i64 6
  %148 = load i8 (%"class.std::ctype"*, i8)*, i8 (%"class.std::ctype"*, i8)** %147, align 8
  %149 = call signext i8 %148(%"class.std::ctype"* nonnull align 8 dereferenceable(570) %134, i8 signext 10)
  br label %150

150:                                              ; preds = %141, %144
  %151 = phi i8 [ %143, %141 ], [ %149, %144 ]
  %152 = call nonnull align 8 dereferenceable(8) %"class.std::basic_ostream"* @_ZNSo3putEc(%"class.std::basic_ostream"* nonnull align 8 dereferenceable(8) %124, i8 signext %151)
  %153 = call nonnull align 8 dereferenceable(8) %"class.std::basic_ostream"* @_ZNSo5flushEv(%"class.std::basic_ostream"* nonnull align 8 dereferenceable(8) %152)
  call void @llvm.lifetime.end.p0i8(i64 64, i8* nonnull %2) #8
  br label %4, !llvm.loop !25

154:                                              ; preds = %12
  call void @llvm.lifetime.end.p0i8(i64 64, i8* nonnull %2) #8
  ret i32 0
}

; Function Attrs: argmemonly mustprogress nofree nosync nounwind willreturn
declare void @llvm.lifetime.start.p0i8(i64 immarg, i8* nocapture) #4

declare nonnull align 8 dereferenceable(16) %"class.std::basic_istream"* @_ZNSirsERi(%"class.std::basic_istream"* nonnull align 8 dereferenceable(16), i32* nonnull align 4 dereferenceable(4)) local_unnamed_addr #0

declare nonnull align 8 dereferenceable(8) %"class.std::basic_ostream"* @_ZNSolsEi(%"class.std::basic_ostream"* nonnull align 8 dereferenceable(8), i32) local_unnamed_addr #0

; Function Attrs: argmemonly mustprogress nofree nosync nounwind willreturn
declare void @llvm.lifetime.end.p0i8(i64 immarg, i8* nocapture) #4

declare nonnull align 8 dereferenceable(8) %"class.std::basic_ostream"* @_ZNSo3putEc(%"class.std::basic_ostream"* nonnull align 8 dereferenceable(8), i8 signext) local_unnamed_addr #0

declare nonnull align 8 dereferenceable(8) %"class.std::basic_ostream"* @_ZNSo5flushEv(%"class.std::basic_ostream"* nonnull align 8 dereferenceable(8)) local_unnamed_addr #0

; Function Attrs: noreturn
declare void @_ZSt16__throw_bad_castv() local_unnamed_addr #5

declare void @_ZNKSt5ctypeIcE13_M_widen_initEv(%"class.std::ctype"* nonnull align 8 dereferenceable(570)) local_unnamed_addr #0

; Function Attrs: sspstrong uwtable
define internal void @_GLOBAL__sub_I_1410.cpp() #6 section ".text.startup" {
  tail call void @_ZNSt8ios_base4InitC1Ev(%"class.std::ios_base::Init"* nonnull align 1 dereferenceable(1) @_ZStL8__ioinit)
  %1 = tail call i32 @__cxa_atexit(void (i8*)* bitcast (void (%"class.std::ios_base::Init"*)* @_ZNSt8ios_base4InitD1Ev to void (i8*)*), i8* getelementptr inbounds (%"class.std::ios_base::Init", %"class.std::ios_base::Init"* @_ZStL8__ioinit, i64 0, i32 0), i8* nonnull @__dso_handle) #8
  ret void
}

; Function Attrs: nofree nosync nounwind readnone willreturn
declare i32 @llvm.vector.reduce.add.v4i32(<4 x i32>) #7


!llvm.module.flags = !{!0, !1, !2, !3}
!llvm.ident = !{!4}

!0 = !{i32 1, !"wchar_size", i32 4}
!1 = !{i32 7, !"PIC Level", i32 2}
!2 = !{i32 7, !"PIE Level", i32 2}
!3 = !{i32 7, !"uwtable", i32 1}
!4 = !{!"clang version 13.0.0"}
!5 = !{!6, !6, i64 0}
!6 = !{!"int", !7, i64 0}
!7 = !{!"omnipotent char", !8, i64 0}
!8 = !{!"Simple C++ TBAA"}
!9 = distinct !{!9, !10}
!10 = !{!"llvm.loop.mustprogress"}
!11 = distinct !{!11, !10, !12}
!12 = !{!"llvm.loop.isvectorized", i32 1}
!13 = distinct !{!13, !10, !14, !12}
!14 = !{!"llvm.loop.unroll.runtime.disable"}
!15 = distinct !{!15, !10}
!16 = !{!17, !17, i64 0}
!17 = !{!"vtable pointer", !8, i64 0}
!18 = !{!19, !20, i64 240}
!19 = !{!"_ZTSSt9basic_iosIcSt11char_traitsIcEE", !20, i64 216, !7, i64 224, !21, i64 225, !20, i64 232, !20, i64 240, !20, i64 248, !20, i64 256}
!20 = !{!"any pointer", !7, i64 0}
!21 = !{!"bool", !7, i64 0}
!22 = !{!23, !7, i64 56}
!23 = !{!"_ZTSSt5ctypeIcE", !20, i64 16, !21, i64 24, !20, i64 32, !20, i64 40, !20, i64 48, !7, i64 56, !7, i64 57, !7, i64 313, !7, i64 569}
!24 = !{!7, !7, i64 0}
!25 = distinct !{!25, !10}
